target datalayout = "e-m:e-p270:32:32-p271:32:32-p272:64:64-i64:64-i128:128-f80:128-n8:16:32:64-S128"
target triple = "x86_64-pc-linux-gnu"

%struct.ggml_backend_device = type { %struct.ggml_backend_device_i, ptr, ptr }
%struct.ggml_backend_device_i = type { ptr, ptr, ptr, ptr, ptr, ptr, ptr, ptr, ptr, ptr, ptr, ptr, ptr, ptr, ptr }
%struct.ggml_backend_event = type { ptr, ptr }

@.str = private unnamed_addr constant [123 x i8] c"generated/home/dtcxzyw/WorkSpace/Projects/compilers/llvm-opt-benchmark/bench/llama.cpp/llama.cpp/ggml/src/ggml-backend.cpp\00", align 1
@.str.1 = private unnamed_addr constant [23 x i8] c"GGML_ASSERT(%s) failed\00", align 1
@.str.15 = private unnamed_addr constant [39 x i8] c"event->device->iface.event_synchronize\00", align 1

; Function Attrs: mustprogress uwtable
define void @ggml_backend_event_synchronize(ptr noundef %0) #0 {
  %2 = alloca ptr, align 8
  store ptr %0, ptr %2, align 8, !tbaa !93
  %3 = load ptr, ptr %2, align 8, !tbaa !93
  %4 = getelementptr inbounds nuw %struct.ggml_backend_event, ptr %3, i32 0, i32 0
  %5 = load ptr, ptr %4, align 8, !tbaa !95
  %6 = getelementptr inbounds nuw %struct.ggml_backend_device, ptr %5, i32 0, i32 0
  %7 = getelementptr inbounds nuw %struct.ggml_backend_device_i, ptr %6, i32 0, i32 14
  %8 = load ptr, ptr %7, align 8, !tbaa !99
  %9 = icmp ne ptr %8, null
  br i1 %9, label %11, label %10

10:                                               ; preds = %1
  call void (ptr, i32, ptr, ...) @ggml_abort(ptr noundef @.str, i32 noundef 435, ptr noundef @.str.1, ptr noundef @.str.15) #18
  unreachable

11:                                               ; preds = %1
  %12 = load ptr, ptr %2, align 8, !tbaa !93
  %13 = getelementptr inbounds nuw %struct.ggml_backend_event, ptr %12, i32 0, i32 0
  %14 = load ptr, ptr %13, align 8, !tbaa !95
  %15 = getelementptr inbounds nuw %struct.ggml_backend_device, ptr %14, i32 0, i32 0
  %16 = getelementptr inbounds nuw %struct.ggml_backend_device_i, ptr %15, i32 0, i32 14
  %17 = load ptr, ptr %16, align 8, !tbaa !99
  %18 = load ptr, ptr %2, align 8, !tbaa !93
  %19 = getelementptr inbounds nuw %struct.ggml_backend_event, ptr %18, i32 0, i32 0
  %20 = load ptr, ptr %19, align 8, !tbaa !95
  %21 = load ptr, ptr %2, align 8, !tbaa !93
  call void %17(ptr noundef %20, ptr noundef %21)
  ret void
}