; Function Attrs: mustprogress uwtable
define void @ggml_backend_event_synchronize(ptr noundef %0) local_unnamed_addr #0 {
  %2 = load ptr, ptr %0, align 8, !tbaa !79
  %3 = getelementptr inbounds nuw i8, ptr %2, i64 112
  %4 = load ptr, ptr %3, align 8, !tbaa !83
  %.not = icmp eq ptr %4, null
  br i1 %.not, label %5, label %6

5:                                                ; preds = %1
  tail call void (ptr, i32, ptr, ...) @ggml_abort(ptr noundef nonnull @.str, i32 noundef 435, ptr noundef nonnull @.str.1, ptr noundef nonnull @.str.15) #24
  unreachable

6:                                                ; preds = %1
  tail call void %4(ptr noundef nonnull %2, ptr noundef nonnull %0)
  ret void
}